target datalayout = "e-m:e-p270:32:32-p271:32:32-p272:64:64-i64:64-i128:128-f80:128-n8:16:32:64-S128"
target triple = "x86_64-pc-linux-gnu"

%struct._lv_draw_task_t = type { ptr, i32, %struct.lv_area_t, %struct.lv_area_t, %struct.lv_area_t, %struct.lv_area_t, ptr, ptr, i32, ptr, i8, i8 }
%struct.lv_area_t = type { i32, i32, i32, i32 }
%struct._lv_layer_t = type { ptr, %struct.lv_area_t, i32, %struct.lv_area_t, %struct.lv_area_t, i8, i32, ptr, ptr, ptr, i8, ptr }

; Function Attrs: nounwind uwtable
define ptr @lv_draw_add_task(ptr noundef %0, ptr noundef %1) #0 {
  %3 = alloca ptr, align 8
  %4 = alloca ptr, align 8
  %5 = alloca ptr, align 8
  %6 = alloca ptr, align 8
  store ptr %0, ptr %3, align 8, !tbaa !39
  store ptr %1, ptr %4, align 8, !tbaa !41
  call void @llvm.lifetime.start.p0(i64 8, ptr %5) #5
  %7 = call ptr @lv_malloc_zeroed(i64 noundef 120)
  store ptr %7, ptr %5, align 8, !tbaa !42
  br label %8

8:                                                ; preds = %2
  %9 = load ptr, ptr %5, align 8, !tbaa !42
  %10 = icmp ne ptr %9, null
  br i1 %10, label %17, label %11

11:                                               ; preds = %8
  br label %12

12:                                               ; preds = %11
  br label %13

13:                                               ; preds = %12
  br label %14

14:                                               ; preds = %13
  br label %15

15:                                               ; preds = %16, %14
  br label %16

16:                                               ; preds = %15
  br label %15

17:                                               ; preds = %8
  br label %18

18:                                               ; preds = %17
  br label %19

19:                                               ; preds = %18
  %20 = load ptr, ptr %5, align 8, !tbaa !42
  %21 = getelementptr inbounds nuw %struct._lv_draw_task_t, ptr %20, i32 0, i32 2
  %22 = load ptr, ptr %4, align 8, !tbaa !41
  call void @llvm.memcpy.p0.p0.i64(ptr align 4 %21, ptr align 4 %22, i64 16, i1 false), !tbaa.struct !44
  %23 = load ptr, ptr %5, align 8, !tbaa !42
  %24 = getelementptr inbounds nuw %struct._lv_draw_task_t, ptr %23, i32 0, i32 3
  %25 = load ptr, ptr %4, align 8, !tbaa !41
  call void @llvm.memcpy.p0.p0.i64(ptr align 4 %24, ptr align 4 %25, i64 16, i1 false), !tbaa.struct !44
  %26 = load ptr, ptr %3, align 8, !tbaa !39
  %27 = load ptr, ptr %5, align 8, !tbaa !42
  %28 = getelementptr inbounds nuw %struct._lv_draw_task_t, ptr %27, i32 0, i32 6
  store ptr %26, ptr %28, align 8, !tbaa !46
  %29 = load ptr, ptr %5, align 8, !tbaa !42
  %30 = getelementptr inbounds nuw %struct._lv_draw_task_t, ptr %29, i32 0, i32 5
  %31 = load ptr, ptr %3, align 8, !tbaa !39
  %32 = getelementptr inbounds nuw %struct._lv_layer_t, ptr %31, i32 0, i32 3
  call void @llvm.memcpy.p0.p0.i64(ptr align 4 %30, ptr align 4 %32, i64 16, i1 false), !tbaa.struct !44
  %33 = load ptr, ptr %5, align 8, !tbaa !42
  %34 = getelementptr inbounds nuw %struct._lv_draw_task_t, ptr %33, i32 0, i32 8
  store volatile i32 1, ptr %34, align 8, !tbaa !49
  %35 = load ptr, ptr %3, align 8, !tbaa !39
  %36 = getelementptr inbounds nuw %struct._lv_layer_t, ptr %35, i32 0, i32 7
  %37 = load ptr, ptr %36, align 8, !tbaa !50
  %38 = icmp eq ptr %37, null
  br i1 %38, label %39, label %43

39:                                               ; preds = %19
  %40 = load ptr, ptr %5, align 8, !tbaa !42
  %41 = load ptr, ptr %3, align 8, !tbaa !39
  %42 = getelementptr inbounds nuw %struct._lv_layer_t, ptr %41, i32 0, i32 7
  store ptr %40, ptr %42, align 8, !tbaa !50
  br label %60

43:                                               ; preds = %19
  call void @llvm.lifetime.start.p0(i64 8, ptr %6) #5
  %44 = load ptr, ptr %3, align 8, !tbaa !39
  %45 = getelementptr inbounds nuw %struct._lv_layer_t, ptr %44, i32 0, i32 7
  %46 = load ptr, ptr %45, align 8, !tbaa !50
  store ptr %46, ptr %6, align 8, !tbaa !42
  br label %47

47:                                               ; preds = %52, %43
  %48 = load ptr, ptr %6, align 8, !tbaa !42
  %49 = getelementptr inbounds nuw %struct._lv_draw_task_t, ptr %48, i32 0, i32 0
  %50 = load ptr, ptr %49, align 8, !tbaa !53
  %51 = icmp ne ptr %50, null
  br i1 %51, label %52, label %56

52:                                               ; preds = %47
  %53 = load ptr, ptr %6, align 8, !tbaa !42
  %54 = getelementptr inbounds nuw %struct._lv_draw_task_t, ptr %53, i32 0, i32 0
  %55 = load ptr, ptr %54, align 8, !tbaa !53
  store ptr %55, ptr %6, align 8, !tbaa !42
  br label %47, !llvm.loop !54

56:                                               ; preds = %47
  %57 = load ptr, ptr %5, align 8, !tbaa !42
  %58 = load ptr, ptr %6, align 8, !tbaa !42
  %59 = getelementptr inbounds nuw %struct._lv_draw_task_t, ptr %58, i32 0, i32 0
  store ptr %57, ptr %59, align 8, !tbaa !53
  call void @llvm.lifetime.end.p0(i64 8, ptr %6) #5
  br label %60

60:                                               ; preds = %56, %39
  %61 = load ptr, ptr %5, align 8, !tbaa !42
  call void @llvm.lifetime.end.p0(i64 8, ptr %5) #5
  ret ptr %61
}