; Function Attrs: nounwind uwtable
define nonnull ptr @lv_draw_add_task(ptr noundef %0, ptr noundef readonly captures(none) %1) local_unnamed_addr #1 {
  %3 = tail call ptr @lv_malloc_zeroed(i64 noundef 120) #11
  %.not = icmp eq ptr %3, null
  br i1 %.not, label %.preheader, label %4

.preheader:                                       ; preds = %2, %.preheader
  br label %.preheader

4:                                                ; preds = %2
  %5 = getelementptr inbounds nuw i8, ptr %3, i64 12
  tail call void @llvm.memcpy.p0.p0.i64(ptr noundef nonnull align 4 dereferenceable(16) %5, ptr noundef nonnull align 4 dereferenceable(16) %1, i64 16, i1 false), !tbaa.struct !37
  %6 = getelementptr inbounds nuw i8, ptr %3, i64 28
  tail call void @llvm.memcpy.p0.p0.i64(ptr noundef nonnull align 4 dereferenceable(16) %6, ptr noundef nonnull align 4 dereferenceable(16) %1, i64 16, i1 false), !tbaa.struct !37
  %7 = getelementptr inbounds nuw i8, ptr %3, i64 80
  store ptr %0, ptr %7, align 8, !tbaa !39
  %8 = getelementptr inbounds nuw i8, ptr %3, i64 60
  %9 = getelementptr inbounds nuw i8, ptr %0, i64 28
  tail call void @llvm.memcpy.p0.p0.i64(ptr noundef nonnull align 4 dereferenceable(16) %8, ptr noundef nonnull align 4 dereferenceable(16) %9, i64 16, i1 false), !tbaa.struct !37
  %10 = getelementptr inbounds nuw i8, ptr %3, i64 96
  store volatile i32 1, ptr %10, align 8, !tbaa !44
  %11 = getelementptr inbounds nuw i8, ptr %0, i64 72
  %12 = load ptr, ptr %11, align 8, !tbaa !45
  %13 = icmp eq ptr %12, null
  br i1 %13, label %14, label %.preheader23

14:                                               ; preds = %4
  store ptr %3, ptr %11, align 8, !tbaa !45
  br label %17

.preheader23:                                     ; preds = %4, %.preheader23
  %.0 = phi ptr [ %15, %.preheader23 ], [ %12, %4 ]
  %15 = load ptr, ptr %.0, align 8, !tbaa !48
  %.not22 = icmp eq ptr %15, null
  br i1 %.not22, label %16, label %.preheader23, !llvm.loop !49

16:                                               ; preds = %.preheader23
  store ptr %3, ptr %.0, align 8, !tbaa !48
  br label %17

17:                                               ; preds = %16, %14
  ret ptr %3
}